target datalayout = "e-m:e-p270:32:32-p271:32:32-p272:64:64-i64:64-i128:128-f80:128-n8:16:32:64-S128"
target triple = "x86_64-pc-linux-gnu"

%struct.opj_jp2 = type { ptr, ptr, ptr, i32, i32, i32, i32, i32, i32, i32, i32, i32, i32, i32, i32, i32, i32, ptr, ptr, i64, i64, i32, i32, i32, %struct.opj_jp2_color, i32, i8, i8 }
%struct.opj_jp2_color = type { ptr, i32, ptr, ptr, i8 }

@.str.75 = private unnamed_addr constant [39 x i8] c"Not enough memory to handle ftyp data\0A\00", align 1
@.str.76 = private unnamed_addr constant [41 x i8] c"Error while writing ftyp data to stream\0A\00", align 1

; Function Attrs: nounwind uwtable
define internal i32 @opj_jp2_write_ftyp(ptr noundef %0, ptr noundef %1, ptr noundef %2) #0 {
  %4 = alloca i32, align 4
  %5 = alloca ptr, align 8
  %6 = alloca ptr, align 8
  %7 = alloca ptr, align 8
  %8 = alloca i32, align 4
  %9 = alloca i32, align 4
  %10 = alloca ptr, align 8
  %11 = alloca ptr, align 8
  %12 = alloca i32, align 4
  %13 = alloca i32, align 4
  store ptr %0, ptr %5, align 8, !tbaa !3
  store ptr %1, ptr %6, align 8, !tbaa !8
  store ptr %2, ptr %7, align 8, !tbaa !12
  call void @llvm.lifetime.start.p0(i64 4, ptr %8) #5
  call void @llvm.lifetime.start.p0(i64 4, ptr %9) #5
  call void @llvm.lifetime.start.p0(i64 8, ptr %10) #5
  call void @llvm.lifetime.start.p0(i64 8, ptr %11) #5
  call void @llvm.lifetime.start.p0(i64 4, ptr %12) #5
  %14 = load ptr, ptr %5, align 8, !tbaa !3
  %15 = getelementptr inbounds nuw %struct.opj_jp2, ptr %14, i32 0, i32 16
  %16 = load i32, ptr %15, align 4, !tbaa !47
  %17 = mul i32 4, %16
  %18 = add i32 16, %17
  store i32 %18, ptr %9, align 4, !tbaa !39
  %19 = load i32, ptr %9, align 4, !tbaa !39
  %20 = zext i32 %19 to i64
  %21 = call ptr @opj_calloc(i64 noundef 1, i64 noundef %20)
  store ptr %21, ptr %10, align 8, !tbaa !106
  %22 = load ptr, ptr %10, align 8, !tbaa !106
  %23 = icmp eq ptr %22, null
  br i1 %23, label %24, label %27

24:                                               ; preds = %3
  %25 = load ptr, ptr %7, align 8, !tbaa !12
  %26 = call i32 (ptr, i32, ptr, ...) @opj_event_msg(ptr noundef %25, i32 noundef 1, ptr noundef @.str.75)
  store i32 0, ptr %4, align 4
  store i32 1, ptr %13, align 4
  br label %85

27:                                               ; preds = %3
  %28 = load ptr, ptr %10, align 8, !tbaa !106
  store ptr %28, ptr %11, align 8, !tbaa !106
  %29 = load ptr, ptr %11, align 8, !tbaa !106
  %30 = load i32, ptr %9, align 4, !tbaa !39
  call void @opj_write_bytes_LE(ptr noundef %29, i32 noundef %30, i32 noundef 4)
  %31 = load ptr, ptr %11, align 8, !tbaa !106
  %32 = getelementptr inbounds i8, ptr %31, i64 4
  store ptr %32, ptr %11, align 8, !tbaa !106
  %33 = load ptr, ptr %11, align 8, !tbaa !106
  call void @opj_write_bytes_LE(ptr noundef %33, i32 noundef 1718909296, i32 noundef 4)
  %34 = load ptr, ptr %11, align 8, !tbaa !106
  %35 = getelementptr inbounds i8, ptr %34, i64 4
  store ptr %35, ptr %11, align 8, !tbaa !106
  %36 = load ptr, ptr %11, align 8, !tbaa !106
  %37 = load ptr, ptr %5, align 8, !tbaa !3
  %38 = getelementptr inbounds nuw %struct.opj_jp2, ptr %37, i32 0, i32 14
  %39 = load i32, ptr %38, align 4, !tbaa !45
  call void @opj_write_bytes_LE(ptr noundef %36, i32 noundef %39, i32 noundef 4)
  %40 = load ptr, ptr %11, align 8, !tbaa !106
  %41 = getelementptr inbounds i8, ptr %40, i64 4
  store ptr %41, ptr %11, align 8, !tbaa !106
  %42 = load ptr, ptr %11, align 8, !tbaa !106
  %43 = load ptr, ptr %5, align 8, !tbaa !3
  %44 = getelementptr inbounds nuw %struct.opj_jp2, ptr %43, i32 0, i32 15
  %45 = load i32, ptr %44, align 8, !tbaa !46
  call void @opj_write_bytes_LE(ptr noundef %42, i32 noundef %45, i32 noundef 4)
  %46 = load ptr, ptr %11, align 8, !tbaa !106
  %47 = getelementptr inbounds i8, ptr %46, i64 4
  store ptr %47, ptr %11, align 8, !tbaa !106
  store i32 0, ptr %8, align 4, !tbaa !39
  br label %48

48:                                               ; preds = %63, %27
  %49 = load i32, ptr %8, align 4, !tbaa !39
  %50 = load ptr, ptr %5, align 8, !tbaa !3
  %51 = getelementptr inbounds nuw %struct.opj_jp2, ptr %50, i32 0, i32 16
  %52 = load i32, ptr %51, align 4, !tbaa !47
  %53 = icmp ult i32 %49, %52
  br i1 %53, label %54, label %66

54:                                               ; preds = %48
  %55 = load ptr, ptr %11, align 8, !tbaa !106
  %56 = load ptr, ptr %5, align 8, !tbaa !3
  %57 = getelementptr inbounds nuw %struct.opj_jp2, ptr %56, i32 0, i32 17
  %58 = load ptr, ptr %57, align 8, !tbaa !48
  %59 = load i32, ptr %8, align 4, !tbaa !39
  %60 = zext i32 %59 to i64
  %61 = getelementptr inbounds nuw i32, ptr %58, i64 %60
  %62 = load i32, ptr %61, align 4, !tbaa !39
  call void @opj_write_bytes_LE(ptr noundef %55, i32 noundef %62, i32 noundef 4)
  br label %63

63:                                               ; preds = %54
  %64 = load i32, ptr %8, align 4, !tbaa !39
  %65 = add i32 %64, 1
  store i32 %65, ptr %8, align 4, !tbaa !39
  br label %48, !llvm.loop !186

66:                                               ; preds = %48
  %67 = load ptr, ptr %6, align 8, !tbaa !8
  %68 = load ptr, ptr %10, align 8, !tbaa !106
  %69 = load i32, ptr %9, align 4, !tbaa !39
  %70 = zext i32 %69 to i64
  %71 = load ptr, ptr %7, align 8, !tbaa !12
  %72 = call i64 @opj_stream_write_data(ptr noundef %67, ptr noundef %68, i64 noundef %70, ptr noundef %71)
  %73 = load i32, ptr %9, align 4, !tbaa !39
  %74 = zext i32 %73 to i64
  %75 = icmp eq i64 %72, %74
  %76 = zext i1 %75 to i32
  store i32 %76, ptr %12, align 4, !tbaa !39
  %77 = load i32, ptr %12, align 4, !tbaa !39
  %78 = icmp ne i32 %77, 0
  br i1 %78, label %82, label %79

79:                                               ; preds = %66
  %80 = load ptr, ptr %7, align 8, !tbaa !12
  %81 = call i32 (ptr, i32, ptr, ...) @opj_event_msg(ptr noundef %80, i32 noundef 1, ptr noundef @.str.76)
  br label %82

82:                                               ; preds = %79, %66
  %83 = load ptr, ptr %10, align 8, !tbaa !106
  call void @opj_free(ptr noundef %83)
  %84 = load i32, ptr %12, align 4, !tbaa !39
  store i32 %84, ptr %4, align 4
  store i32 1, ptr %13, align 4
  br label %85

85:                                               ; preds = %82, %24
  call void @llvm.lifetime.end.p0(i64 4, ptr %12) #5
  call void @llvm.lifetime.end.p0(i64 8, ptr %11) #5
  call void @llvm.lifetime.end.p0(i64 8, ptr %10) #5
  call void @llvm.lifetime.end.p0(i64 4, ptr %9) #5
  call void @llvm.lifetime.end.p0(i64 4, ptr %8) #5
  %86 = load i32, ptr %4, align 4
  ret i32 %86
}