; Function Attrs: nounwind uwtable
define internal range(i32 0, 2) i32 @opj_jp2_write_ftyp(ptr noundef readonly captures(none) %0, ptr noundef %1, ptr noundef %2) #0 {
  %4 = getelementptr inbounds nuw i8, ptr %0, i64 76
  %5 = load i32, ptr %4, align 4, !tbaa !80
  %6 = shl i32 %5, 2
  %7 = add i32 %6, 16
  %8 = zext i32 %7 to i64
  %9 = tail call ptr @opj_calloc(i64 noundef 1, i64 noundef %8) #6
  %10 = icmp eq ptr %9, null
  br i1 %10, label %11, label %13

11:                                               ; preds = %3
  %12 = tail call i32 (ptr, i32, ptr, ...) @opj_event_msg(ptr noundef %2, i32 noundef 1, ptr noundef nonnull @.str.75) #6
  br label %37

13:                                               ; preds = %3
  tail call void @opj_write_bytes_LE(ptr noundef nonnull %9, i32 noundef %7, i32 noundef 4) #6
  %14 = getelementptr inbounds nuw i8, ptr %9, i64 4
  tail call void @opj_write_bytes_LE(ptr noundef nonnull %14, i32 noundef 1718909296, i32 noundef 4) #6
  %15 = getelementptr inbounds nuw i8, ptr %9, i64 8
  %16 = getelementptr inbounds nuw i8, ptr %0, i64 68
  %17 = load i32, ptr %16, align 4, !tbaa !78
  tail call void @opj_write_bytes_LE(ptr noundef nonnull %15, i32 noundef %17, i32 noundef 4) #6
  %18 = getelementptr inbounds nuw i8, ptr %9, i64 12
  %19 = getelementptr inbounds nuw i8, ptr %0, i64 72
  %20 = load i32, ptr %19, align 8, !tbaa !79
  tail call void @opj_write_bytes_LE(ptr noundef nonnull %18, i32 noundef %20, i32 noundef 4) #6
  %21 = getelementptr inbounds nuw i8, ptr %9, i64 16
  %22 = load i32, ptr %4, align 4, !tbaa !80
  %.not = icmp eq i32 %22, 0
  br i1 %.not, label %._crit_edge, label %.lr.ph

.lr.ph:                                           ; preds = %13
  %23 = getelementptr inbounds nuw i8, ptr %0, i64 80
  br label %24

24:                                               ; preds = %.lr.ph, %24
  %indvars.iv = phi i64 [ 0, %.lr.ph ], [ %indvars.iv.next, %24 ]
  %25 = load ptr, ptr %23, align 8, !tbaa !81
  %26 = getelementptr inbounds nuw i32, ptr %25, i64 %indvars.iv
  %27 = load i32, ptr %26, align 4, !tbaa !46
  tail call void @opj_write_bytes_LE(ptr noundef nonnull %21, i32 noundef %27, i32 noundef 4) #6
  %indvars.iv.next = add nuw nsw i64 %indvars.iv, 1
  %28 = load i32, ptr %4, align 4, !tbaa !80
  %29 = zext i32 %28 to i64
  %30 = icmp samesign ult i64 %indvars.iv.next, %29
  br i1 %30, label %24, label %._crit_edge, !llvm.loop !152

._crit_edge:                                      ; preds = %24, %13
  %31 = tail call i64 @opj_stream_write_data(ptr noundef %1, ptr noundef nonnull %9, i64 noundef %8, ptr noundef %2) #6
  %32 = icmp eq i64 %31, %8
  %33 = zext i1 %32 to i32
  br i1 %32, label %36, label %34

34:                                               ; preds = %._crit_edge
  %35 = tail call i32 (ptr, i32, ptr, ...) @opj_event_msg(ptr noundef %2, i32 noundef 1, ptr noundef nonnull @.str.76) #6
  br label %36

36:                                               ; preds = %34, %._crit_edge
  tail call void @opj_free(ptr noundef nonnull %9) #6
  br label %37

37:                                               ; preds = %36, %11
  %.0 = phi i32 [ 0, %11 ], [ %33, %36 ]
  ret i32 %.0
}